; Function Attrs: mustprogress uwtable
define void @_ZNK6icu_7511UXMLElement7getTextEa(ptr noalias nonnull sret(%"class.icu_75::UnicodeString") align 8 %agg.result, ptr noundef nonnull align 8 dereferenceable(216) %this, i8 noundef signext %recurse) local_unnamed_addr #1 align 2 personality ptr @__gxx_personality_v0 {
entry:
  store ptr getelementptr inbounds ({ [13 x ptr] }, ptr @_ZTVN6icu_7513UnicodeStringE, i64 0, i32 0, i64 2), ptr %agg.result, align 8
  %fUnion2.i = getelementptr inbounds i8, ptr %agg.result, i64 8
  store i16 2, ptr %fUnion2.i, align 8
  invoke void @_ZNK6icu_7511UXMLElement10appendTextERNS_13UnicodeStringEa(ptr noundef nonnull align 8 dereferenceable(216) %this, ptr noundef nonnull align 8 dereferenceable(64) %agg.result, i8 noundef signext %recurse)
          to label %nrvo.skipdtor unwind label %lpad

lpad:                                             ; preds = %entry
  %0 = landingpad { ptr, i32 }
          cleanup
  tail call void @_ZN6icu_7513UnicodeStringD1Ev(ptr noundef nonnull align 8 dereferenceable(64) %agg.result) #11
  resume { ptr, i32 } %0

nrvo.skipdtor:                                    ; preds = %entry
  ret void
}